target datalayout = "e-m:e-p270:32:32-p271:32:32-p272:64:64-i64:64-i128:128-f80:128-n8:16:32:64-S128"
target triple = "x86_64-pc-linux-gnu"

%struct.strbuf = type { i64, i64, ptr }
%struct.object_id = type { [32 x i8], i32 }
%struct.ref = type { ptr, %struct.object_id, %struct.object_id, %struct.object_id, ptr, ptr, i8, i32, i32, i32, ptr, ptr, ptr, [0 x i8] }

@dry_run = internal global i32 0, align 4
@default_rla = internal global %struct.strbuf { i64 0, i64 0, ptr @strbuf_slopbuf }, align 8
@the_repository = external global ptr, align 8
@.str.124 = private unnamed_addr constant [3 x i8] c"%s\00", align 1
@.str.242 = private unnamed_addr constant [18 x i8] c"GIT_REFLOG_ACTION\00", align 1
@__const.s_update_ref.err = private unnamed_addr constant %struct.strbuf { i64 0, i64 0, ptr @strbuf_slopbuf }, align 8
@.str.243 = private unnamed_addr constant [7 x i8] c"%s: %s\00", align 1

; Function Attrs: inlinehint nounwind uwtable
define internal i32 @const_error() #5 {
  ret i32 -1
}

; Function Attrs: nounwind uwtable
define internal i32 @s_update_ref(ptr noundef %0, ptr noundef %1, ptr noundef %2, i32 noundef %3) #0 {
  %5 = alloca i32, align 4
  %6 = alloca ptr, align 8
  %7 = alloca ptr, align 8
  %8 = alloca ptr, align 8
  %9 = alloca i32, align 4
  %10 = alloca ptr, align 8
  %11 = alloca ptr, align 8
  %12 = alloca ptr, align 8
  %13 = alloca %struct.strbuf, align 8
  %14 = alloca i32, align 4
  %15 = alloca i32, align 4
  store ptr %0, ptr %6, align 8, !tbaa !11
  store ptr %1, ptr %7, align 8, !tbaa !187
  store ptr %2, ptr %8, align 8, !tbaa !185
  store i32 %3, ptr %9, align 4, !tbaa !4
  call void @llvm.lifetime.start.p0(i64 8, ptr %10) #11
  call void @llvm.lifetime.start.p0(i64 8, ptr %11) #11
  %16 = call ptr @getenv(ptr noundef @.str.242) #11
  store ptr %16, ptr %11, align 8, !tbaa !11
  call void @llvm.lifetime.start.p0(i64 8, ptr %12) #11
  store ptr null, ptr %12, align 8, !tbaa !185
  call void @llvm.lifetime.start.p0(i64 24, ptr %13) #11
  call void @llvm.memcpy.p0.p0.i64(ptr align 8 %13, ptr align 8 @__const.s_update_ref.err, i64 24, i1 false)
  call void @llvm.lifetime.start.p0(i64 4, ptr %14) #11
  %17 = load i32, ptr @dry_run, align 4, !tbaa !4
  %18 = icmp ne i32 %17, 0
  br i1 %18, label %19, label %20

19:                                               ; preds = %4
  store i32 0, ptr %5, align 4
  store i32 1, ptr %15, align 4
  br label %81

20:                                               ; preds = %4
  %21 = load ptr, ptr %11, align 8, !tbaa !11
  %22 = icmp ne ptr %21, null
  br i1 %22, label %25, label %23

23:                                               ; preds = %20
  %24 = load ptr, ptr getelementptr inbounds nuw (%struct.strbuf, ptr @default_rla, i32 0, i32 2), align 8, !tbaa !150
  store ptr %24, ptr %11, align 8, !tbaa !11
  br label %25

25:                                               ; preds = %23, %20
  %26 = load ptr, ptr %11, align 8, !tbaa !11
  %27 = load ptr, ptr %6, align 8, !tbaa !11
  %28 = call ptr (ptr, ...) @xstrfmt(ptr noundef @.str.243, ptr noundef %26, ptr noundef %27)
  store ptr %28, ptr %10, align 8, !tbaa !11
  %29 = load ptr, ptr %8, align 8, !tbaa !185
  %30 = icmp ne ptr %29, null
  br i1 %30, label %39, label %31

31:                                               ; preds = %25
  %32 = load ptr, ptr @the_repository, align 8, !tbaa !13
  %33 = call ptr @get_main_ref_store(ptr noundef %32)
  %34 = call ptr @ref_store_transaction_begin(ptr noundef %33, i32 noundef 0, ptr noundef %13)
  store ptr %34, ptr %12, align 8, !tbaa !185
  store ptr %34, ptr %8, align 8, !tbaa !185
  %35 = load ptr, ptr %8, align 8, !tbaa !185
  %36 = icmp ne ptr %35, null
  br i1 %36, label %38, label %37

37:                                               ; preds = %31
  store i32 1, ptr %14, align 4, !tbaa !4
  br label %69

38:                                               ; preds = %31
  br label %39

39:                                               ; preds = %38, %25
  %40 = load ptr, ptr %8, align 8, !tbaa !185
  %41 = load ptr, ptr %7, align 8, !tbaa !187
  %42 = getelementptr inbounds nuw %struct.ref, ptr %41, i32 0, i32 13
  %43 = getelementptr inbounds [0 x i8], ptr %42, i64 0, i64 0
  %44 = load ptr, ptr %7, align 8, !tbaa !187
  %45 = getelementptr inbounds nuw %struct.ref, ptr %44, i32 0, i32 2
  %46 = load i32, ptr %9, align 4, !tbaa !4
  %47 = icmp ne i32 %46, 0
  br i1 %47, label %48, label %51

48:                                               ; preds = %39
  %49 = load ptr, ptr %7, align 8, !tbaa !187
  %50 = getelementptr inbounds nuw %struct.ref, ptr %49, i32 0, i32 1
  br label %52

51:                                               ; preds = %39
  br label %52

52:                                               ; preds = %51, %48
  %53 = phi ptr [ %50, %48 ], [ null, %51 ]
  %54 = load ptr, ptr %10, align 8, !tbaa !11
  %55 = call i32 @ref_transaction_update(ptr noundef %40, ptr noundef %43, ptr noundef %45, ptr noundef %53, ptr noundef null, ptr noundef null, i32 noundef 0, ptr noundef %54, ptr noundef %13)
  store i32 %55, ptr %14, align 4, !tbaa !4
  %56 = load i32, ptr %14, align 4, !tbaa !4
  %57 = icmp ne i32 %56, 0
  br i1 %57, label %58, label %59

58:                                               ; preds = %52
  store i32 1, ptr %14, align 4, !tbaa !4
  br label %69

59:                                               ; preds = %52
  %60 = load ptr, ptr %12, align 8, !tbaa !185
  %61 = icmp ne ptr %60, null
  br i1 %61, label %62, label %68

62:                                               ; preds = %59
  %63 = load ptr, ptr %12, align 8, !tbaa !185
  %64 = call i32 @ref_transaction_commit(ptr noundef %63, ptr noundef %13)
  switch i32 %64, label %66 [
    i32 0, label %67
    i32 -1, label %65
  ]

65:                                               ; preds = %62
  store i32 2, ptr %14, align 4, !tbaa !4
  br label %69

66:                                               ; preds = %62
  store i32 1, ptr %14, align 4, !tbaa !4
  br label %69

67:                                               ; preds = %62
  br label %68

68:                                               ; preds = %67, %59
  br label %69

69:                                               ; preds = %68, %66, %65, %58, %37
  %70 = load ptr, ptr %12, align 8, !tbaa !185
  call void @ref_transaction_free(ptr noundef %70)
  %71 = load i32, ptr %14, align 4, !tbaa !4
  %72 = icmp ne i32 %71, 0
  br i1 %72, label %73, label %78

73:                                               ; preds = %69
  %74 = getelementptr inbounds nuw %struct.strbuf, ptr %13, i32 0, i32 2
  %75 = load ptr, ptr %74, align 8, !tbaa !150
  %76 = call i32 (ptr, ...) @error(ptr noundef @.str.124, ptr noundef %75)
  %77 = call i32 @const_error()
  br label %78

78:                                               ; preds = %73, %69
  call void @strbuf_release(ptr noundef %13)
  %79 = load ptr, ptr %10, align 8, !tbaa !11
  call void @free(ptr noundef %79) #11
  %80 = load i32, ptr %14, align 4, !tbaa !4
  store i32 %80, ptr %5, align 4
  store i32 1, ptr %15, align 4
  br label %81

81:                                               ; preds = %78, %19
  call void @llvm.lifetime.end.p0(i64 4, ptr %14) #11
  call void @llvm.lifetime.end.p0(i64 24, ptr %13) #11
  call void @llvm.lifetime.end.p0(i64 8, ptr %12) #11
  call void @llvm.lifetime.end.p0(i64 8, ptr %11) #11
  call void @llvm.lifetime.end.p0(i64 8, ptr %10) #11
  %82 = load i32, ptr %5, align 4
  ret i32 %82
}