; Function Attrs: nounwind uwtable
define internal fastcc range(i32 0, 3) i32 @s_update_ref(ptr noundef %0, ptr noundef nonnull %1, ptr noundef %2, i32 noundef range(i32 0, 2) %3) unnamed_addr #0 {
  %5 = alloca %struct.strbuf, align 8
  %6 = tail call ptr @getenv(ptr noundef nonnull @.str.242) #20
  call void @llvm.lifetime.start.p0(i64 24, ptr nonnull %5) #20
  call void @llvm.memcpy.p0.p0.i64(ptr noundef nonnull align 8 dereferenceable(24) %5, ptr noundef nonnull align 8 dereferenceable(24) @__const.report_set_head.buf_prefix, i64 24, i1 false)
  %7 = load i32, ptr @dry_run, align 4, !tbaa !9
  %.not = icmp eq i32 %7, 0
  br i1 %.not, label %8, label %31

8:                                                ; preds = %4
  %.not27 = icmp eq ptr %6, null
  %9 = load ptr, ptr getelementptr inbounds nuw (i8, ptr @default_rla, i64 16), align 8
  %spec.select = select i1 %.not27, ptr %9, ptr %6
  %10 = tail call ptr (ptr, ...) @xstrfmt(ptr noundef nonnull @.str.243, ptr noundef %spec.select, ptr noundef %0) #20
  %.not28 = icmp eq ptr %2, null
  br i1 %.not28, label %11, label %15

11:                                               ; preds = %8
  %12 = load ptr, ptr @the_repository, align 8, !tbaa !24
  %13 = tail call ptr @get_main_ref_store(ptr noundef %12) #20
  %14 = call ptr @ref_store_transaction_begin(ptr noundef %13, i32 noundef 0, ptr noundef nonnull %5) #20
  %.not29 = icmp eq ptr %14, null
  br i1 %.not29, label %26, label %15

15:                                               ; preds = %11, %8
  %.021 = phi ptr [ %2, %8 ], [ %14, %11 ]
  %.018 = phi ptr [ null, %8 ], [ %14, %11 ]
  %16 = getelementptr inbounds nuw i8, ptr %1, i64 176
  %17 = getelementptr inbounds nuw i8, ptr %1, i64 44
  %.not30 = icmp eq i32 %3, 0
  %18 = getelementptr inbounds nuw i8, ptr %1, i64 8
  %19 = select i1 %.not30, ptr null, ptr %18
  %20 = call i32 @ref_transaction_update(ptr noundef nonnull %.021, ptr noundef nonnull %16, ptr noundef nonnull %17, ptr noundef %19, ptr noundef null, ptr noundef null, i32 noundef 0, ptr noundef %10, ptr noundef nonnull %5) #20
  %.not31 = icmp eq i32 %20, 0
  br i1 %.not31, label %21, label %26

21:                                               ; preds = %15
  %.not32 = icmp eq ptr %.018, null
  br i1 %.not32, label %25, label %22

22:                                               ; preds = %21
  %23 = call i32 @ref_transaction_commit(ptr noundef nonnull %.018, ptr noundef nonnull %5) #20
  switch i32 %23, label %24 [
    i32 0, label %25
    i32 -1, label %26
  ]

24:                                               ; preds = %22
  br label %26

25:                                               ; preds = %21, %22
  call void @ref_transaction_free(ptr noundef %.018) #20
  br label %30

26:                                               ; preds = %22, %24, %11, %15
  %.1.ph = phi ptr [ %.018, %15 ], [ null, %11 ], [ %.018, %24 ], [ %.018, %22 ]
  %.0.ph = phi i32 [ 1, %15 ], [ 1, %11 ], [ 1, %24 ], [ 2, %22 ]
  call void @ref_transaction_free(ptr noundef %.1.ph) #20
  %27 = getelementptr inbounds nuw i8, ptr %5, i64 16
  %28 = load ptr, ptr %27, align 8, !tbaa !101
  %29 = call i32 (ptr, ...) @error(ptr noundef nonnull @.str.124, ptr noundef %28) #20
  br label %30

30:                                               ; preds = %25, %26
  %.038 = phi i32 [ %.0.ph, %26 ], [ 0, %25 ]
  call void @strbuf_release(ptr noundef nonnull %5) #20
  call void @free(ptr noundef %10) #20
  br label %31

31:                                               ; preds = %4, %30
  %.020 = phi i32 [ %.038, %30 ], [ 0, %4 ]
  call void @llvm.lifetime.end.p0(i64 24, ptr nonnull %5) #20
  ret i32 %.020
}